Certificate:
    Data:
        Version: 3 (0x2)
        Serial Number: 324 (0x144)
    Signature Algorithm: sha256WithRSAEncryption
        Issuer: C=br, ST=Santa Catarina, L=Porto Belo, O=Univali, OU=CTTMar, CN=cttmar.univali.br
        Validity
            Not Before: Oct 13 23:28:45 2016 GMT
            Not After : Oct 14 23:28:45 2016 GMT
        Subject: CN=client41
        Subject Public Key Info:
            Public Key Algorithm: rsaEncryption
                Public-Key: (2048 bit)
                Modulus:
                    00:8a:d4:09:ff:fc:16:85:31:1d:c7:e7:cc:41:ed:
                    41:2b:0e:d2:d2:4a:ae:79:9a:91:ef:e9:e0:8c:fa:
                    89:8e:95:f4:96:41:6f:1b:29:0c:58:c1:41:b0:20:
                    45:36:f4:ec:ac:75:cd:74:a9:18:d8:d7:ae:ce:f8:
                    a9:21:69:d7:cd:86:ea:f3:2f:b6:11:0d:63:42:ae:
                    d7:8c:1c:68:d3:f2:37:ee:0a:7c:d1:b6:5a:b2:e9:
                    16:b2:2c:f1:e3:7e:3a:3d:70:e0:c1:67:0a:c9:1f:
                    d5:18:58:6c:a1:21:f8:94:84:21:1b:2d:c8:50:20:
                    4d:e9:f5:49:ef:8f:e5:5a:3e:1a:4d:61:70:56:a4:
                    77:a8:90:d5:5c:74:91:d8:89:a5:31:fc:49:cd:77:
                    6f:ea:35:90:51:bb:95:44:19:79:e2:07:d5:82:d3:
                    9e:8b:97:e8:21:4e:c6:bf:c5:0a:57:ce:20:a7:c2:
                    1c:22:8f:0b:2b:52:ef:0e:2e:52:e0:36:a2:5d:80:
                    23:20:2d:df:b6:df:e1:df:55:1a:60:05:bd:b1:54:
                    67:83:c0:ae:fe:47:10:c1:fe:41:5f:7c:66:28:df:
                    ea:9e:da:c0:f7:7a:8e:c0:d4:d2:00:ee:df:3b:cc:
                    a8:84:19:55:32:df:6b:c8:fe:4a:a6:46:00:a6:e9:
                    c9:57
                Exponent: 65537 (0x10001)
        X509v3 extensions:
            X509v3 Basic Constraints: 
                CA:FALSE
            Netscape Comment: 
                OpenSSL Generated Certificate
            X509v3 Subject Key Identifier: 
                28:BB:16:4F:22:18:35:E7:28:B8:DC:CE:98:59:81:20:F9:9D:EC:8B
            X509v3 Authority Key Identifier: 
                keyid:87:D9:5D:89:D2:58:14:CC:E1:7F:4D:1A:DF:6E:7E:82:7E:5B:65:90

    Signature Algorithm: sha256WithRSAEncryption
         5a:6a:89:5d:f5:7c:1b:ba:e0:75:27:47:5e:5d:57:00:54:8b:
         9f:01:c6:19:05:56:e5:4b:04:4a:cc:c0:97:80:40:ae:ec:6c:
         a7:07:4c:7e:90:6b:c8:c3:7a:fb:95:54:fc:3f:6d:f7:90:db:
         27:93:ee:1d:9d:e6:6b:ce:24:72:bf:c4:31:41:71:20:88:a2:
         8d:3a:4f:d6:67:c0:bb:0e:1c:62:5f:17:57:02:dc:5c:9a:d7:
         a5:df:b1:8e:65:76:44:b5:0e:e7:5d:9f:e0:29:7b:be:4c:01:
         0a:e3:6a:bb:50:ed:ed:0e:2c:16:ae:87:31:02:bd:92:f4:84:
         6c:7c:12:1b:10:4d:64:f3:a5:fd:04:79:0d:08:c8:31:9d:c4:
         e5:d0:05:46:89:c2:92:ca:8c:f5:63:52:b0:fd:bb:c1:2f:30:
         02:ac:cd:c2:cf:7d:00:e5:78:4e:78:10:84:f1:4c:e9:2d:30:
         04:2f:74:b7:8a:5d:1b:f5:67:46:28:7f:53:ac:37:12:09:e8:
         c5:76:15:80:60:01:1f:9f:35:06:4b:42:57:d5:80:36:ab:fb:
         17:ca:ac:4e:d5:6d:58:0d:13:16:4e:bd:97:07:aa:1a:f1:71:
         74:aa:d6:16:84:e8:27:6e:b4:aa:4e:fe:d2:04:f8:0b:09:53:
         05:ca:7d:d3
-----BEGIN CERTIFICATE-----
MIIDhDCCAmygAwIBAgICAUQwDQYJKoZIhvcNAQELBQAwejELMAkGA1UEBhMCYnIx
FzAVBgNVBAgMDlNhbnRhIENhdGFyaW5hMRMwEQYDVQQHDApQb3J0byBCZWxvMRAw
DgYDVQQKDAdVbml2YWxpMQ8wDQYDVQQLDAZDVFRNYXIxGjAYBgNVBAMMEWN0dG1h
ci51bml2YWxpLmJyMB4XDTE2MTAxMzIzMjg0NVoXDTE2MTAxNDIzMjg0NVowEzER
MA8GA1UEAxMIY2xpZW50NDEwggEiMA0GCSqGSIb3DQEBAQUAA4IBDwAwggEKAoIB
AQCK1An//BaFMR3H58xB7UErDtLSSq55mpHv6eCM+omOlfSWQW8bKQxYwUGwIEU2
9Oysdc10qRjY167O+KkhadfNhurzL7YRDWNCrteMHGjT8jfuCnzRtlqy6RayLPHj
fjo9cODBZwrJH9UYWGyhIfiUhCEbLchQIE3p9Unvj+VaPhpNYXBWpHeokNVcdJHY
iaUx/EnNd2/qNZBRu5VEGXniB9WC056Ll+ghTsa/xQpXziCnwhwijwsrUu8OLlLg
NqJdgCMgLd+23+HfVRpgBb2xVGeDwK7+RxDB/kFffGYo3+qe2sD3eo7A1NIA7t87
zKiEGVUy32vI/kqmRgCm6clXAgMBAAGjezB5MAkGA1UdEwQCMAAwLAYJYIZIAYb4
QgENBB8WHU9wZW5TU0wgR2VuZXJhdGVkIENlcnRpZmljYXRlMB0GA1UdDgQWBBQo
uxZPIhg15yi43M6YWYEg+Z3sizAfBgNVHSMEGDAWgBSH2V2J0lgUzOF/TRrfbn6C
fltlkDANBgkqhkiG9w0BAQsFAAOCAQEAWmqJXfV8G7rgdSdHXl1XAFSLnwHGGQVW
5UsESszAl4BAruxspwdMfpBryMN6+5VU/D9t95DbJ5PuHZ3ma84kcr/EMUFxIIii
jTpP1mfAuw4cYl8XVwLcXJrXpd+xjmV2RLUO512f4Cl7vkwBCuNqu1Dt7Q4sFq6H
MQK9kvSEbHwSGxBNZPOl/QR5DQjIMZ3E5dAFRonCksqM9WNSsP27wS8wAqzNws99
AOV4TngQhPFM6S0wBC90t4pdG/VnRih/U6w3EgnoxXYVgGABH581BktCV9WANqv7
F8qsTtVtWA0TFk69lweqGvFxdKrWFoToJ260qk7+0gT4CwlTBcp90w==
-----END CERTIFICATE-----
