Certificate:
    Data:
        Version: 3 (0x2)
        Serial Number: 327 (0x147)
    Signature Algorithm: sha256WithRSAEncryption
        Issuer: C=br, ST=Santa Catarina, L=Porto Belo, O=Univali, OU=CTTMar, CN=cttmar.univali.br
        Validity
            Not Before: Oct 29 20:19:37 2016 GMT
            Not After : Oct 30 20:19:37 2016 GMT
        Subject: CN=client41
        Subject Public Key Info:
            Public Key Algorithm: rsaEncryption
                Public-Key: (2048 bit)
                Modulus:
                    00:8a:d4:09:ff:fc:16:85:31:1d:c7:e7:cc:41:ed:
                    41:2b:0e:d2:d2:4a:ae:79:9a:91:ef:e9:e0:8c:fa:
                    89:8e:95:f4:96:41:6f:1b:29:0c:58:c1:41:b0:20:
                    45:36:f4:ec:ac:75:cd:74:a9:18:d8:d7:ae:ce:f8:
                    a9:21:69:d7:cd:86:ea:f3:2f:b6:11:0d:63:42:ae:
                    d7:8c:1c:68:d3:f2:37:ee:0a:7c:d1:b6:5a:b2:e9:
                    16:b2:2c:f1:e3:7e:3a:3d:70:e0:c1:67:0a:c9:1f:
                    d5:18:58:6c:a1:21:f8:94:84:21:1b:2d:c8:50:20:
                    4d:e9:f5:49:ef:8f:e5:5a:3e:1a:4d:61:70:56:a4:
                    77:a8:90:d5:5c:74:91:d8:89:a5:31:fc:49:cd:77:
                    6f:ea:35:90:51:bb:95:44:19:79:e2:07:d5:82:d3:
                    9e:8b:97:e8:21:4e:c6:bf:c5:0a:57:ce:20:a7:c2:
                    1c:22:8f:0b:2b:52:ef:0e:2e:52:e0:36:a2:5d:80:
                    23:20:2d:df:b6:df:e1:df:55:1a:60:05:bd:b1:54:
                    67:83:c0:ae:fe:47:10:c1:fe:41:5f:7c:66:28:df:
                    ea:9e:da:c0:f7:7a:8e:c0:d4:d2:00:ee:df:3b:cc:
                    a8:84:19:55:32:df:6b:c8:fe:4a:a6:46:00:a6:e9:
                    c9:57
                Exponent: 65537 (0x10001)
        X509v3 extensions:
            X509v3 Basic Constraints: 
                CA:FALSE
            Netscape Comment: 
                OpenSSL Generated Certificate
            X509v3 Subject Key Identifier: 
                28:BB:16:4F:22:18:35:E7:28:B8:DC:CE:98:59:81:20:F9:9D:EC:8B
            X509v3 Authority Key Identifier: 
                keyid:87:D9:5D:89:D2:58:14:CC:E1:7F:4D:1A:DF:6E:7E:82:7E:5B:65:90

    Signature Algorithm: sha256WithRSAEncryption
         41:b8:d1:ce:91:70:94:bf:94:c5:a8:2d:08:45:63:b7:78:72:
         49:2d:86:98:75:32:2e:5f:7b:a4:d7:83:dc:4d:c0:e5:7a:1f:
         95:e2:bf:7e:3c:84:52:a5:96:4a:65:a5:9a:76:bf:6e:72:bf:
         9b:18:79:99:bd:10:eb:6f:3e:a4:4d:c1:bb:df:62:82:ff:d0:
         3f:8b:b6:01:10:cd:e8:0e:51:7a:45:f0:cc:b9:f8:83:ce:1f:
         4c:76:59:68:d1:6e:42:15:c3:9c:eb:b8:cc:64:37:77:ca:36:
         63:c9:c9:45:e9:d7:6d:34:cc:22:d5:6c:32:fa:e8:cf:ef:17:
         0f:d3:75:48:dc:9b:f1:75:fb:26:54:e8:fe:da:1f:26:3d:81:
         ae:ea:61:9b:91:fb:2b:f0:5f:f8:7b:ef:9a:81:fc:eb:de:03:
         f9:c6:83:84:41:6a:76:64:66:9e:d1:ba:1d:29:ba:7e:e7:71:
         6f:d6:78:81:26:8b:e6:47:59:28:77:ef:2b:b9:c6:3b:40:2f:
         7e:f9:2a:7a:98:71:08:9e:c3:5a:f5:e2:f2:20:e7:c2:8d:e0:
         b0:37:8d:e4:d9:b1:a1:c9:39:6e:89:bc:bb:a6:4a:57:6a:00:
         cb:04:5e:f9:f2:6e:d1:e4:66:18:53:e5:2f:66:52:0d:c3:a3:
         c4:de:ac:9b
-----BEGIN CERTIFICATE-----
MIIDhDCCAmygAwIBAgICAUcwDQYJKoZIhvcNAQELBQAwejELMAkGA1UEBhMCYnIx
FzAVBgNVBAgMDlNhbnRhIENhdGFyaW5hMRMwEQYDVQQHDApQb3J0byBCZWxvMRAw
DgYDVQQKDAdVbml2YWxpMQ8wDQYDVQQLDAZDVFRNYXIxGjAYBgNVBAMMEWN0dG1h
ci51bml2YWxpLmJyMB4XDTE2MTAyOTIwMTkzN1oXDTE2MTAzMDIwMTkzN1owEzER
MA8GA1UEAxMIY2xpZW50NDEwggEiMA0GCSqGSIb3DQEBAQUAA4IBDwAwggEKAoIB
AQCK1An//BaFMR3H58xB7UErDtLSSq55mpHv6eCM+omOlfSWQW8bKQxYwUGwIEU2
9Oysdc10qRjY167O+KkhadfNhurzL7YRDWNCrteMHGjT8jfuCnzRtlqy6RayLPHj
fjo9cODBZwrJH9UYWGyhIfiUhCEbLchQIE3p9Unvj+VaPhpNYXBWpHeokNVcdJHY
iaUx/EnNd2/qNZBRu5VEGXniB9WC056Ll+ghTsa/xQpXziCnwhwijwsrUu8OLlLg
NqJdgCMgLd+23+HfVRpgBb2xVGeDwK7+RxDB/kFffGYo3+qe2sD3eo7A1NIA7t87
zKiEGVUy32vI/kqmRgCm6clXAgMBAAGjezB5MAkGA1UdEwQCMAAwLAYJYIZIAYb4
QgENBB8WHU9wZW5TU0wgR2VuZXJhdGVkIENlcnRpZmljYXRlMB0GA1UdDgQWBBQo
uxZPIhg15yi43M6YWYEg+Z3sizAfBgNVHSMEGDAWgBSH2V2J0lgUzOF/TRrfbn6C
fltlkDANBgkqhkiG9w0BAQsFAAOCAQEAQbjRzpFwlL+UxagtCEVjt3hySS2GmHUy
Ll97pNeD3E3A5XofleK/fjyEUqWWSmWlmna/bnK/mxh5mb0Q628+pE3Bu99igv/Q
P4u2ARDN6A5RekXwzLn4g84fTHZZaNFuQhXDnOu4zGQ3d8o2Y8nJRenXbTTMItVs
Mvroz+8XD9N1SNyb8XX7JlTo/tofJj2Bruphm5H7K/Bf+HvvmoH8694D+caDhEFq
dmRmntG6HSm6fudxb9Z4gSaL5kdZKHfvK7nGO0AvfvkqephxCJ7DWvXi8iDnwo3g
sDeN5Nmxock5bom8u6ZKV2oAywRe+fJu0eRmGFPlL2ZSDcOjxN6smw==
-----END CERTIFICATE-----
